; Function Attrs: nounwind uwtable
define noalias nonnull ptr @l_Lean_RBNode_forIn_visit___at_Lean_LeanOptions_toOptions___spec__1(ptr noundef %0, ptr noundef %1) local_unnamed_addr #0 {
  br label %3

3:                                                ; preds = %lean_dec.exit, %2
  %.024 = phi ptr [ %1, %2 ], [ %88, %lean_dec.exit ]
  %.0 = phi ptr [ %0, %2 ], [ %51, %lean_dec.exit ]
  %4 = ptrtoint ptr %.0 to i64
  %5 = and i64 %4, 1
  %.not.i32 = icmp eq i64 %5, 0
  br i1 %.not.i32, label %9, label %6

6:                                                ; preds = %3
  %7 = lshr i64 %4, 1
  %8 = trunc i64 %7 to i32
  br label %lean_obj_tag.exit

9:                                                ; preds = %3
  %10 = getelementptr i8, ptr %.0, i64 4
  %.val.i = load i32, ptr %10, align 4
  %11 = lshr i32 %.val.i, 24
  br label %lean_obj_tag.exit

lean_obj_tag.exit:                                ; preds = %6, %9
  %.0.i = phi i32 [ %8, %6 ], [ %11, %9 ]
  %12 = icmp eq i32 %.0.i, 0
  br i1 %12, label %13, label %19

13:                                               ; preds = %lean_obj_tag.exit
  tail call void @lean_inc_heartbeat() #5
  %14 = tail call noalias ptr @mi_malloc_small(i64 noundef 16) #5
  %15 = icmp eq ptr %14, null
  br i1 %15, label %16, label %lean_alloc_ctor.exit

16:                                               ; preds = %13
  tail call void @lean_internal_panic_out_of_memory() #6
  unreachable

lean_alloc_ctor.exit:                             ; preds = %13
  %17 = getelementptr inbounds nuw i8, ptr %14, i64 4
  store i32 1, ptr %14, align 4, !tbaa !4
  store i32 16842768, ptr %17, align 4
  %18 = getelementptr inbounds nuw i8, ptr %14, i64 8
  store ptr %.024, ptr %18, align 8, !tbaa !9
  ret ptr %14

19:                                               ; preds = %lean_obj_tag.exit
  %20 = getelementptr inbounds nuw i8, ptr %.0, i64 8
  %21 = load ptr, ptr %20, align 8, !tbaa !9
  %22 = ptrtoint ptr %21 to i64
  %23 = and i64 %22, 1
  %.not = icmp eq i64 %23, 0
  br i1 %.not, label %24, label %lean_inc.exit29

24:                                               ; preds = %19
  %.val.i33 = load i32, ptr %21, align 4, !tbaa !4
  %25 = icmp sgt i32 %.val.i33, 0
  br i1 %25, label %26, label %28, !prof !12

26:                                               ; preds = %24
  %27 = add nuw i32 %.val.i33, 1
  store i32 %27, ptr %21, align 4, !tbaa !4
  br label %lean_inc.exit29

28:                                               ; preds = %24
  %.not.i34 = icmp eq i32 %.val.i33, 0
  br i1 %.not.i34, label %lean_inc.exit29, label %29

29:                                               ; preds = %28
  tail call void @lean_inc_ref_cold(ptr noundef nonnull %21) #5
  br label %lean_inc.exit29

lean_inc.exit29:                                  ; preds = %29, %28, %26, %19
  %30 = getelementptr inbounds nuw i8, ptr %.0, i64 16
  %31 = load ptr, ptr %30, align 8, !tbaa !9
  %32 = ptrtoint ptr %31 to i64
  %33 = and i64 %32, 1
  %.not47 = icmp eq i64 %33, 0
  br i1 %.not47, label %34, label %lean_inc.exit28

34:                                               ; preds = %lean_inc.exit29
  %.val.i35 = load i32, ptr %31, align 4, !tbaa !4
  %35 = icmp sgt i32 %.val.i35, 0
  br i1 %35, label %36, label %38, !prof !12

36:                                               ; preds = %34
  %37 = add nuw i32 %.val.i35, 1
  store i32 %37, ptr %31, align 4, !tbaa !4
  br label %lean_inc.exit28

38:                                               ; preds = %34
  %.not.i36 = icmp eq i32 %.val.i35, 0
  br i1 %.not.i36, label %lean_inc.exit28, label %39

39:                                               ; preds = %38
  tail call void @lean_inc_ref_cold(ptr noundef nonnull %31) #5
  br label %lean_inc.exit28

lean_inc.exit28:                                  ; preds = %39, %38, %36, %lean_inc.exit29
  %40 = getelementptr inbounds nuw i8, ptr %.0, i64 24
  %41 = load ptr, ptr %40, align 8, !tbaa !9
  %42 = ptrtoint ptr %41 to i64
  %43 = and i64 %42, 1
  %.not48 = icmp eq i64 %43, 0
  br i1 %.not48, label %44, label %lean_inc.exit27

44:                                               ; preds = %lean_inc.exit28
  %.val.i38 = load i32, ptr %41, align 4, !tbaa !4
  %45 = icmp sgt i32 %.val.i38, 0
  br i1 %45, label %46, label %48, !prof !12

46:                                               ; preds = %44
  %47 = add nuw i32 %.val.i38, 1
  store i32 %47, ptr %41, align 4, !tbaa !4
  br label %lean_inc.exit27

48:                                               ; preds = %44
  %.not.i39 = icmp eq i32 %.val.i38, 0
  br i1 %.not.i39, label %lean_inc.exit27, label %49

49:                                               ; preds = %48
  tail call void @lean_inc_ref_cold(ptr noundef nonnull %41) #5
  br label %lean_inc.exit27

lean_inc.exit27:                                  ; preds = %49, %48, %46, %lean_inc.exit28
  %50 = getelementptr inbounds nuw i8, ptr %.0, i64 32
  %51 = load ptr, ptr %50, align 8, !tbaa !9
  %52 = ptrtoint ptr %51 to i64
  %53 = and i64 %52, 1
  %.not49 = icmp eq i64 %53, 0
  br i1 %.not49, label %54, label %lean_inc.exit26

54:                                               ; preds = %lean_inc.exit27
  %.val.i41 = load i32, ptr %51, align 4, !tbaa !4
  %55 = icmp sgt i32 %.val.i41, 0
  br i1 %55, label %56, label %58, !prof !12

56:                                               ; preds = %54
  %57 = add nuw i32 %.val.i41, 1
  store i32 %57, ptr %51, align 4, !tbaa !4
  br label %lean_inc.exit26

58:                                               ; preds = %54
  %.not.i42 = icmp eq i32 %.val.i41, 0
  br i1 %.not.i42, label %lean_inc.exit26, label %59

59:                                               ; preds = %58
  tail call void @lean_inc_ref_cold(ptr noundef nonnull %51) #5
  br label %lean_inc.exit26

lean_inc.exit26:                                  ; preds = %59, %58, %56, %lean_inc.exit27
  br i1 %.not.i32, label %60, label %lean_dec.exit25

60:                                               ; preds = %lean_inc.exit26
  %61 = load i32, ptr %.0, align 4, !tbaa !4
  %62 = icmp sgt i32 %61, 1
  br i1 %62, label %63, label %65, !prof !12

63:                                               ; preds = %60
  %64 = add nsw i32 %61, -1
  store i32 %64, ptr %.0, align 4, !tbaa !4
  br label %lean_dec.exit25

65:                                               ; preds = %60
  %.not.i = icmp eq i32 %61, 0
  br i1 %.not.i, label %lean_dec.exit25, label %66

66:                                               ; preds = %65
  tail call void @lean_dec_ref_cold(ptr noundef nonnull %.0) #5
  br label %lean_dec.exit25

lean_dec.exit25:                                  ; preds = %66, %65, %63, %lean_inc.exit26
  %67 = tail call ptr @l_Lean_RBNode_forIn_visit___at_Lean_LeanOptions_toOptions___spec__1(ptr noundef %21, ptr noundef %.024)
  %68 = getelementptr inbounds nuw i8, ptr %67, i64 8
  %69 = load ptr, ptr %68, align 8, !tbaa !9
  %70 = ptrtoint ptr %69 to i64
  %71 = and i64 %70, 1
  %.not51 = icmp eq i64 %71, 0
  br i1 %.not51, label %72, label %lean_inc.exit

72:                                               ; preds = %lean_dec.exit25
  %.val.i44 = load i32, ptr %69, align 4, !tbaa !4
  %73 = icmp sgt i32 %.val.i44, 0
  br i1 %73, label %74, label %76, !prof !12

74:                                               ; preds = %72
  %75 = add nuw i32 %.val.i44, 1
  store i32 %75, ptr %69, align 4, !tbaa !4
  br label %lean_inc.exit

76:                                               ; preds = %72
  %.not.i45 = icmp eq i32 %.val.i44, 0
  br i1 %.not.i45, label %lean_inc.exit, label %77

77:                                               ; preds = %76
  tail call void @lean_inc_ref_cold(ptr noundef nonnull %69) #5
  br label %lean_inc.exit

lean_inc.exit:                                    ; preds = %77, %76, %74, %lean_dec.exit25
  %78 = ptrtoint ptr %67 to i64
  %79 = and i64 %78, 1
  %.not52 = icmp eq i64 %79, 0
  br i1 %.not52, label %80, label %lean_dec.exit

80:                                               ; preds = %lean_inc.exit
  %81 = load i32, ptr %67, align 4, !tbaa !4
  %82 = icmp sgt i32 %81, 1
  br i1 %82, label %83, label %85, !prof !12

83:                                               ; preds = %80
  %84 = add nsw i32 %81, -1
  store i32 %84, ptr %67, align 4, !tbaa !4
  br label %lean_dec.exit

85:                                               ; preds = %80
  %.not.i30 = icmp eq i32 %81, 0
  br i1 %.not.i30, label %lean_dec.exit, label %86

86:                                               ; preds = %85
  tail call void @lean_dec_ref_cold(ptr noundef nonnull %67) #5
  br label %lean_dec.exit

lean_dec.exit:                                    ; preds = %86, %85, %83, %lean_inc.exit
  %87 = tail call ptr @l_Lean_LeanOptionValue_toDataValue(ptr noundef %41)
  %88 = tail call ptr @l_Lean_KVMap_insertCore(ptr noundef %69, ptr noundef %31, ptr noundef %87) #5
  br label %3
}